target datalayout = "e-m:e-p270:32:32-p271:32:32-p272:64:64-i64:64-i128:128-f80:128-n8:16:32:64-S128"
target triple = "x86_64-pc-linux-gnu"

%struct.PyVarObject = type { %struct._object, i64 }
%struct._object = type { %union.anon, ptr }
%union.anon = type { i64 }
%struct.PyBytesObject = type { %struct.PyVarObject, i64, [1 x i8] }
%struct._PyManagedBufferObject = type { %struct._object, i32, i64, %struct.Py_buffer }
%struct.Py_buffer = type { ptr, ptr, i64, i64, i32, i32, ptr, ptr, ptr, ptr, ptr }
%struct.PyMemoryViewObject = type { %struct.PyVarObject, ptr, i64, i32, i64, %struct.Py_buffer, ptr, [1 x i64] }
%struct.anon = type { i32, i32 }

@PyExc_ValueError = external global ptr, align 8
@.str.8 = private unnamed_addr constant [50 x i8] c"operation forbidden on released memoryview object\00", align 1

; Function Attrs: alwaysinline nounwind uwtable
define internal i32 @_Py_IsImmortal(ptr noundef %0) #4 {
  %2 = alloca ptr, align 8
  store ptr %0, ptr %2, align 8, !tbaa !4
  %3 = load ptr, ptr %2, align 8, !tbaa !4
  %4 = getelementptr inbounds nuw %struct._object, ptr %3, i32 0, i32 0
  %5 = getelementptr inbounds nuw %struct.anon, ptr %4, i32 0, i32 0
  %6 = load i32, ptr %5, align 8, !tbaa !29
  %7 = icmp slt i32 %6, 0
  %8 = zext i1 %7 to i32
  ret i32 %8
}

; Function Attrs: inlinehint nounwind uwtable
define internal i64 @PyBytes_GET_SIZE(ptr noundef %0) #3 {
  %2 = alloca ptr, align 8
  %3 = alloca ptr, align 8
  store ptr %0, ptr %2, align 8, !tbaa !4
  call void @llvm.lifetime.start.p0(i64 8, ptr %3) #9
  %4 = load ptr, ptr %2, align 8, !tbaa !4
  store ptr %4, ptr %3, align 8, !tbaa !9
  %5 = load ptr, ptr %3, align 8, !tbaa !9
  %6 = call i64 @Py_SIZE(ptr noundef %5)
  call void @llvm.lifetime.end.p0(i64 8, ptr %3) #9
  ret i64 %6
}

; Function Attrs: alwaysinline nounwind uwtable
define internal void @Py_DECREF(ptr noundef %0) #4 {
  %2 = alloca ptr, align 8
  store ptr %0, ptr %2, align 8, !tbaa !4
  %3 = load ptr, ptr %2, align 8, !tbaa !4
  %4 = call i32 @_Py_IsImmortal(ptr noundef %3)
  %5 = icmp ne i32 %4, 0
  br i1 %5, label %6, label %7

6:                                                ; preds = %1
  br label %16

7:                                                ; preds = %1
  %8 = load ptr, ptr %2, align 8, !tbaa !4
  %9 = getelementptr inbounds nuw %struct._object, ptr %8, i32 0, i32 0
  %10 = getelementptr inbounds nuw %struct.anon, ptr %9, i32 0, i32 0
  %11 = load i32, ptr %10, align 8, !tbaa !29
  %12 = add i32 %11, -1
  store i32 %12, ptr %10, align 8, !tbaa !29
  %13 = icmp eq i32 %12, 0
  br i1 %13, label %14, label %16

14:                                               ; preds = %7
  %15 = load ptr, ptr %2, align 8, !tbaa !4
  call void @_Py_Dealloc(ptr noundef %15)
  br label %16

16:                                               ; preds = %6, %14, %7
  ret void
}

; Function Attrs: inlinehint nounwind uwtable
define internal ptr @PyBytes_AS_STRING(ptr noundef %0) #3 {
  %2 = alloca ptr, align 8
  store ptr %0, ptr %2, align 8, !tbaa !4
  %3 = load ptr, ptr %2, align 8, !tbaa !4
  %4 = getelementptr inbounds nuw %struct.PyBytesObject, ptr %3, i32 0, i32 2
  %5 = getelementptr inbounds [1 x i8], ptr %4, i64 0, i64 0
  ret ptr %5
}

; Function Attrs: inlinehint nounwind uwtable
define internal i64 @Py_SIZE(ptr noundef %0) #3 {
  %2 = alloca ptr, align 8
  store ptr %0, ptr %2, align 8, !tbaa !4
  %3 = load ptr, ptr %2, align 8, !tbaa !4
  %4 = getelementptr inbounds nuw %struct.PyVarObject, ptr %3, i32 0, i32 1
  %5 = load i64, ptr %4, align 8, !tbaa !183
  ret i64 %5
}

; Function Attrs: nounwind uwtable
define internal ptr @memoryview_hex_impl(ptr noundef %0, ptr noundef %1, i32 noundef %2) #0 {
  %4 = alloca ptr, align 8
  %5 = alloca ptr, align 8
  %6 = alloca ptr, align 8
  %7 = alloca i32, align 4
  %8 = alloca ptr, align 8
  %9 = alloca ptr, align 8
  %10 = alloca ptr, align 8
  %11 = alloca i32, align 4
  store ptr %0, ptr %5, align 8, !tbaa !9
  store ptr %1, ptr %6, align 8, !tbaa !4
  store i32 %2, ptr %7, align 4, !tbaa !21
  call void @llvm.lifetime.start.p0(i64 8, ptr %8) #9
  %12 = load ptr, ptr %5, align 8, !tbaa !9
  %13 = getelementptr inbounds nuw %struct.PyMemoryViewObject, ptr %12, i32 0, i32 5
  store ptr %13, ptr %8, align 8, !tbaa !9
  call void @llvm.lifetime.start.p0(i64 8, ptr %9) #9
  call void @llvm.lifetime.start.p0(i64 8, ptr %10) #9
  %14 = load ptr, ptr %5, align 8, !tbaa !9
  %15 = getelementptr inbounds nuw %struct.PyMemoryViewObject, ptr %14, i32 0, i32 3
  %16 = load i32, ptr %15, align 8, !tbaa !33
  %17 = and i32 %16, 1
  %18 = icmp ne i32 %17, 0
  br i1 %18, label %27, label %19

19:                                               ; preds = %3
  %20 = load ptr, ptr %5, align 8, !tbaa !9
  %21 = getelementptr inbounds nuw %struct.PyMemoryViewObject, ptr %20, i32 0, i32 1
  %22 = load ptr, ptr %21, align 8, !tbaa !26
  %23 = getelementptr inbounds nuw %struct._PyManagedBufferObject, ptr %22, i32 0, i32 1
  %24 = load i32, ptr %23, align 8, !tbaa !10
  %25 = and i32 %24, 1
  %26 = icmp ne i32 %25, 0
  br i1 %26, label %27, label %29

27:                                               ; preds = %19, %3
  %28 = load ptr, ptr @PyExc_ValueError, align 8, !tbaa !4
  call void @PyErr_SetString(ptr noundef %28, ptr noundef @.str.8)
  store ptr null, ptr %4, align 8
  store i32 1, ptr %11, align 4
  br label %74

29:                                               ; preds = %19
  %30 = load ptr, ptr %5, align 8, !tbaa !9
  %31 = getelementptr inbounds nuw %struct.PyMemoryViewObject, ptr %30, i32 0, i32 3
  %32 = load i32, ptr %31, align 8, !tbaa !33
  %33 = and i32 %32, 10
  %34 = icmp ne i32 %33, 0
  br i1 %34, label %35, label %45

35:                                               ; preds = %29
  %36 = load ptr, ptr %8, align 8, !tbaa !9
  %37 = getelementptr inbounds nuw %struct.Py_buffer, ptr %36, i32 0, i32 0
  %38 = load ptr, ptr %37, align 8, !tbaa !30
  %39 = load ptr, ptr %8, align 8, !tbaa !9
  %40 = getelementptr inbounds nuw %struct.Py_buffer, ptr %39, i32 0, i32 2
  %41 = load i64, ptr %40, align 8, !tbaa !41
  %42 = load ptr, ptr %6, align 8, !tbaa !4
  %43 = load i32, ptr %7, align 4, !tbaa !21
  %44 = call ptr @_Py_strhex_with_sep(ptr noundef %38, i64 noundef %41, ptr noundef %42, i32 noundef %43)
  store ptr %44, ptr %4, align 8
  store i32 1, ptr %11, align 4
  br label %74

45:                                               ; preds = %29
  %46 = load ptr, ptr %8, align 8, !tbaa !9
  %47 = getelementptr inbounds nuw %struct.Py_buffer, ptr %46, i32 0, i32 2
  %48 = load i64, ptr %47, align 8, !tbaa !41
  %49 = call ptr @PyBytes_FromStringAndSize(ptr noundef null, i64 noundef %48)
  store ptr %49, ptr %9, align 8, !tbaa !4
  %50 = load ptr, ptr %9, align 8, !tbaa !4
  %51 = icmp eq ptr %50, null
  br i1 %51, label %52, label %53

52:                                               ; preds = %45
  store ptr null, ptr %4, align 8
  store i32 1, ptr %11, align 4
  br label %74

53:                                               ; preds = %45
  %54 = load ptr, ptr %9, align 8, !tbaa !4
  %55 = call ptr @PyBytes_AS_STRING(ptr noundef %54)
  %56 = load ptr, ptr %8, align 8, !tbaa !9
  %57 = load ptr, ptr %8, align 8, !tbaa !9
  %58 = getelementptr inbounds nuw %struct.Py_buffer, ptr %57, i32 0, i32 2
  %59 = load i64, ptr %58, align 8, !tbaa !41
  %60 = call i32 @PyBuffer_ToContiguous(ptr noundef %55, ptr noundef %56, i64 noundef %59, i8 noundef signext 67)
  %61 = icmp slt i32 %60, 0
  br i1 %61, label %62, label %64

62:                                               ; preds = %53
  %63 = load ptr, ptr %9, align 8, !tbaa !4
  call void @Py_DECREF(ptr noundef %63)
  store ptr null, ptr %4, align 8
  store i32 1, ptr %11, align 4
  br label %74

64:                                               ; preds = %53
  %65 = load ptr, ptr %9, align 8, !tbaa !4
  %66 = call ptr @PyBytes_AS_STRING(ptr noundef %65)
  %67 = load ptr, ptr %9, align 8, !tbaa !4
  %68 = call i64 @PyBytes_GET_SIZE(ptr noundef %67)
  %69 = load ptr, ptr %6, align 8, !tbaa !4
  %70 = load i32, ptr %7, align 4, !tbaa !21
  %71 = call ptr @_Py_strhex_with_sep(ptr noundef %66, i64 noundef %68, ptr noundef %69, i32 noundef %70)
  store ptr %71, ptr %10, align 8, !tbaa !4
  %72 = load ptr, ptr %9, align 8, !tbaa !4
  call void @Py_DECREF(ptr noundef %72)
  %73 = load ptr, ptr %10, align 8, !tbaa !4
  store ptr %73, ptr %4, align 8
  store i32 1, ptr %11, align 4
  br label %74

74:                                               ; preds = %64, %62, %52, %35, %27
  call void @llvm.lifetime.end.p0(i64 8, ptr %10) #9
  call void @llvm.lifetime.end.p0(i64 8, ptr %9) #9
  call void @llvm.lifetime.end.p0(i64 8, ptr %8) #9
  %75 = load ptr, ptr %4, align 8
  ret ptr %75
}

; Function Attrs: inlinehint nounwind uwtable
define internal i64 @PyTuple_GET_SIZE(ptr noundef %0) #3 {
  %2 = alloca ptr, align 8
  %3 = alloca ptr, align 8
  store ptr %0, ptr %2, align 8, !tbaa !4
  call void @llvm.lifetime.start.p0(i64 8, ptr %3) #9
  %4 = load ptr, ptr %2, align 8, !tbaa !4
  store ptr %4, ptr %3, align 8, !tbaa !9
  %5 = load ptr, ptr %3, align 8, !tbaa !9
  %6 = call i64 @Py_SIZE(ptr noundef %5)
  call void @llvm.lifetime.end.p0(i64 8, ptr %3) #9
  ret i64 %6
}

; Function Attrs: nounwind uwtable
define internal ptr @memoryview_hex(ptr noundef %0, ptr noundef %1, i64 noundef %2, ptr noundef %3) #0 {
  %5 = alloca ptr, align 8
  %6 = alloca ptr, align 8
  %7 = alloca i64, align 8
  %8 = alloca ptr, align 8
  %9 = alloca ptr, align 8
  %10 = alloca [2 x ptr], align 16
  %11 = alloca i64, align 8
  %12 = alloca ptr, align 8
  %13 = alloca i32, align 4
  store ptr %0, ptr %5, align 8, !tbaa !4
  store ptr %1, ptr %6, align 8, !tbaa !71
  store i64 %2, ptr %7, align 8, !tbaa !23
  store ptr %3, ptr %8, align 8, !tbaa !4
  call void @llvm.lifetime.start.p0(i64 8, ptr %9) #9
  store ptr null, ptr %9, align 8, !tbaa !4
  call void @llvm.lifetime.start.p0(i64 16, ptr %10) #9
  call void @llvm.lifetime.start.p0(i64 8, ptr %11) #9
  %14 = load i64, ptr %7, align 8, !tbaa !23
  %15 = load ptr, ptr %8, align 8, !tbaa !4
  %16 = icmp ne ptr %15, null
  br i1 %16, label %17, label %20

17:                                               ; preds = %4
  %18 = load ptr, ptr %8, align 8, !tbaa !4
  %19 = call i64 @PyTuple_GET_SIZE(ptr noundef %18)
  br label %21

20:                                               ; preds = %4
  br label %21

21:                                               ; preds = %20, %17
  %22 = phi i64 [ %19, %17 ], [ 0, %20 ]
  %23 = add i64 %14, %22
  %24 = sub i64 %23, 0
  store i64 %24, ptr %11, align 8, !tbaa !23
  call void @llvm.lifetime.start.p0(i64 8, ptr %12) #9
  store ptr null, ptr %12, align 8, !tbaa !4
  call void @llvm.lifetime.start.p0(i64 4, ptr %13) #9
  store i32 1, ptr %13, align 4, !tbaa !21
  %25 = load ptr, ptr %8, align 8, !tbaa !4
  %26 = icmp eq ptr %25, null
  br i1 %26, label %27, label %38

27:                                               ; preds = %21
  %28 = load i64, ptr %7, align 8, !tbaa !23
  %29 = icmp sle i64 0, %28
  br i1 %29, label %30, label %38

30:                                               ; preds = %27
  %31 = load i64, ptr %7, align 8, !tbaa !23
  %32 = icmp sle i64 %31, 2
  br i1 %32, label %33, label %38

33:                                               ; preds = %30
  %34 = load ptr, ptr %6, align 8, !tbaa !71
  %35 = icmp ne ptr %34, null
  br i1 %35, label %36, label %38

36:                                               ; preds = %33
  %37 = load ptr, ptr %6, align 8, !tbaa !71
  br label %44

38:                                               ; preds = %33, %30, %27, %21
  %39 = load ptr, ptr %6, align 8, !tbaa !71
  %40 = load i64, ptr %7, align 8, !tbaa !23
  %41 = load ptr, ptr %8, align 8, !tbaa !4
  %42 = getelementptr inbounds [2 x ptr], ptr %10, i64 0, i64 0
  %43 = call ptr @_PyArg_UnpackKeywords(ptr noundef %39, i64 noundef %40, ptr noundef null, ptr noundef %41, ptr noundef @memoryview_hex._parser, i32 noundef 0, i32 noundef 2, i32 noundef 0, i32 noundef 0, ptr noundef %42)
  br label %44

44:                                               ; preds = %38, %36
  %45 = phi ptr [ %37, %36 ], [ %43, %38 ]
  store ptr %45, ptr %6, align 8, !tbaa !71
  %46 = load ptr, ptr %6, align 8, !tbaa !71
  %47 = icmp ne ptr %46, null
  br i1 %47, label %49, label %48

48:                                               ; preds = %44
  br label %84

49:                                               ; preds = %44
  %50 = load i64, ptr %11, align 8, !tbaa !23
  %51 = icmp ne i64 %50, 0
  br i1 %51, label %53, label %52

52:                                               ; preds = %49
  br label %79

53:                                               ; preds = %49
  %54 = load ptr, ptr %6, align 8, !tbaa !71
  %55 = getelementptr ptr, ptr %54, i64 0
  %56 = load ptr, ptr %55, align 8, !tbaa !4
  %57 = icmp ne ptr %56, null
  br i1 %57, label %58, label %67

58:                                               ; preds = %53
  %59 = load ptr, ptr %6, align 8, !tbaa !71
  %60 = getelementptr ptr, ptr %59, i64 0
  %61 = load ptr, ptr %60, align 8, !tbaa !4
  store ptr %61, ptr %12, align 8, !tbaa !4
  %62 = load i64, ptr %11, align 8, !tbaa !23
  %63 = add i64 %62, -1
  store i64 %63, ptr %11, align 8, !tbaa !23
  %64 = icmp ne i64 %63, 0
  br i1 %64, label %66, label %65

65:                                               ; preds = %58
  br label %79

66:                                               ; preds = %58
  br label %67

67:                                               ; preds = %66, %53
  %68 = load ptr, ptr %6, align 8, !tbaa !71
  %69 = getelementptr ptr, ptr %68, i64 1
  %70 = load ptr, ptr %69, align 8, !tbaa !4
  %71 = call i32 @PyLong_AsInt(ptr noundef %70)
  store i32 %71, ptr %13, align 4, !tbaa !21
  %72 = load i32, ptr %13, align 4, !tbaa !21
  %73 = icmp eq i32 %72, -1
  br i1 %73, label %74, label %78

74:                                               ; preds = %67
  %75 = call ptr @PyErr_Occurred()
  %76 = icmp ne ptr %75, null
  br i1 %76, label %77, label %78

77:                                               ; preds = %74
  br label %84

78:                                               ; preds = %74, %67
  br label %79

79:                                               ; preds = %78, %65, %52
  %80 = load ptr, ptr %5, align 8, !tbaa !4
  %81 = load ptr, ptr %12, align 8, !tbaa !4
  %82 = load i32, ptr %13, align 4, !tbaa !21
  %83 = call ptr @memoryview_hex_impl(ptr noundef %80, ptr noundef %81, i32 noundef %82)
  store ptr %83, ptr %9, align 8, !tbaa !4
  br label %84

84:                                               ; preds = %79, %77, %48
  %85 = load ptr, ptr %9, align 8, !tbaa !4
  call void @llvm.lifetime.end.p0(i64 4, ptr %13) #9
  call void @llvm.lifetime.end.p0(i64 8, ptr %12) #9
  call void @llvm.lifetime.end.p0(i64 8, ptr %11) #9
  call void @llvm.lifetime.end.p0(i64 16, ptr %10) #9
  call void @llvm.lifetime.end.p0(i64 8, ptr %9) #9
  ret ptr %85
}