; Function Attrs: nounwind uwtable
define internal ptr @memoryview_hex(ptr noundef %0, ptr noundef %1, i64 noundef %2, ptr noundef %3) #0 {
  %5 = alloca [2 x ptr], align 16
  call void @llvm.lifetime.start.p0(i64 16, ptr nonnull %5) #14
  %.not = icmp eq ptr %3, null
  br i1 %.not, label %8, label %.thread

.thread:                                          ; preds = %4
  %6 = getelementptr i8, ptr %3, i64 16
  %.val = load i64, ptr %6, align 8, !tbaa !162
  %7 = add i64 %.val, %2
  br label %11

8:                                                ; preds = %4
  %9 = icmp ult i64 %2, 3
  %10 = icmp ne ptr %1, null
  %or.cond5 = and i1 %10, %9
  br i1 %or.cond5, label %.thread42, label %11

11:                                               ; preds = %8, %.thread
  %12 = phi i64 [ %7, %.thread ], [ %2, %8 ]
  %13 = call ptr @_PyArg_UnpackKeywords(ptr noundef %1, i64 noundef %2, ptr noundef null, ptr noundef %3, ptr noundef nonnull @memoryview_hex._parser, i32 noundef 0, i32 noundef 2, i32 noundef 0, i32 noundef 0, ptr noundef nonnull %5) #14
  %.not35 = icmp eq ptr %13, null
  br i1 %.not35, label %memoryview_hex_impl.exit, label %.thread42

.thread42:                                        ; preds = %8, %11
  %14 = phi ptr [ %13, %11 ], [ %1, %8 ]
  %15 = phi i64 [ %12, %11 ], [ %2, %8 ]
  %.not36 = icmp eq i64 %15, 0
  br i1 %.not36, label %25, label %16

16:                                               ; preds = %.thread42
  %17 = load ptr, ptr %14, align 8, !tbaa !104
  %.not37 = icmp ne ptr %17, null
  %.not38 = icmp eq i64 %15, 1
  %or.cond = and i1 %.not38, %.not37
  br i1 %or.cond, label %25, label %18

18:                                               ; preds = %16
  %19 = getelementptr i8, ptr %14, i64 8
  %20 = load ptr, ptr %19, align 8, !tbaa !104
  %21 = call i32 @PyLong_AsInt(ptr noundef %20) #14
  %22 = icmp eq i32 %21, -1
  br i1 %22, label %23, label %25

23:                                               ; preds = %18
  %24 = call ptr @PyErr_Occurred() #14
  %.not39 = icmp eq ptr %24, null
  br i1 %.not39, label %25, label %memoryview_hex_impl.exit

25:                                               ; preds = %16, %18, %23, %.thread42
  %.026 = phi ptr [ %17, %23 ], [ %17, %18 ], [ null, %.thread42 ], [ %17, %16 ]
  %.0 = phi i32 [ -1, %23 ], [ %21, %18 ], [ 1, %.thread42 ], [ 1, %16 ]
  %26 = getelementptr inbounds nuw i8, ptr %0, i64 56
  %27 = getelementptr inbounds nuw i8, ptr %0, i64 40
  %28 = load i32, ptr %27, align 8, !tbaa !109
  %29 = and i32 %28, 1
  %.not.i = icmp eq i32 %29, 0
  br i1 %.not.i, label %30, label %36

30:                                               ; preds = %25
  %31 = getelementptr inbounds nuw i8, ptr %0, i64 24
  %32 = load ptr, ptr %31, align 8, !tbaa !105
  %33 = getelementptr inbounds nuw i8, ptr %32, i64 16
  %34 = load i32, ptr %33, align 8, !tbaa !4
  %35 = and i32 %34, 1
  %.not21.i = icmp eq i32 %35, 0
  br i1 %.not21.i, label %38, label %36

36:                                               ; preds = %30, %25
  %37 = load ptr, ptr @PyExc_ValueError, align 8, !tbaa !104
  call void @PyErr_SetString(ptr noundef %37, ptr noundef nonnull @.str.8) #14
  br label %memoryview_hex_impl.exit

38:                                               ; preds = %30
  %39 = and i32 %28, 10
  %.not22.i = icmp eq i32 %39, 0
  br i1 %.not22.i, label %45, label %40

40:                                               ; preds = %38
  %41 = load ptr, ptr %26, align 8, !tbaa !117
  %42 = getelementptr inbounds nuw i8, ptr %0, i64 72
  %43 = load i64, ptr %42, align 8, !tbaa !118
  %44 = call ptr @_Py_strhex_with_sep(ptr noundef %41, i64 noundef %43, ptr noundef %.026, i32 noundef %.0) #14
  br label %memoryview_hex_impl.exit

45:                                               ; preds = %38
  %46 = getelementptr inbounds nuw i8, ptr %0, i64 72
  %47 = load i64, ptr %46, align 8, !tbaa !118
  %48 = call ptr @PyBytes_FromStringAndSize(ptr noundef null, i64 noundef %47) #14
  %49 = icmp eq ptr %48, null
  br i1 %49, label %memoryview_hex_impl.exit, label %50

50:                                               ; preds = %45
  %51 = getelementptr inbounds nuw i8, ptr %48, i64 32
  %52 = load i64, ptr %46, align 8, !tbaa !118
  %53 = call i32 @PyBuffer_ToContiguous(ptr noundef nonnull %51, ptr noundef nonnull %26, i64 noundef %52, i8 noundef signext 67)
  %54 = icmp slt i32 %53, 0
  br i1 %54, label %55, label %61

55:                                               ; preds = %50
  %56 = load i32, ptr %48, align 8, !tbaa !102
  %.not.i23.i = icmp sgt i32 %56, -1
  br i1 %.not.i23.i, label %57, label %memoryview_hex_impl.exit

57:                                               ; preds = %55
  %58 = add nsw i32 %56, -1
  store i32 %58, ptr %48, align 8, !tbaa !102
  %59 = icmp eq i32 %58, 0
  br i1 %59, label %60, label %memoryview_hex_impl.exit

60:                                               ; preds = %57
  call void @_Py_Dealloc(ptr noundef nonnull %48) #14
  br label %memoryview_hex_impl.exit

61:                                               ; preds = %50
  %62 = getelementptr i8, ptr %48, i64 16
  %.val.i = load i64, ptr %62, align 8, !tbaa !162
  %63 = call ptr @_Py_strhex_with_sep(ptr noundef nonnull %51, i64 noundef %.val.i, ptr noundef %.026, i32 noundef %.0) #14
  %64 = load i32, ptr %48, align 8, !tbaa !102
  %.not.i.i = icmp sgt i32 %64, -1
  br i1 %.not.i.i, label %65, label %memoryview_hex_impl.exit

65:                                               ; preds = %61
  %66 = add nsw i32 %64, -1
  store i32 %66, ptr %48, align 8, !tbaa !102
  %67 = icmp eq i32 %66, 0
  br i1 %67, label %68, label %memoryview_hex_impl.exit

68:                                               ; preds = %65
  call void @_Py_Dealloc(ptr noundef nonnull %48) #14
  br label %memoryview_hex_impl.exit

memoryview_hex_impl.exit:                         ; preds = %68, %65, %61, %60, %57, %55, %45, %40, %36, %23, %11
  %.027 = phi ptr [ null, %23 ], [ null, %11 ], [ null, %36 ], [ %44, %40 ], [ null, %45 ], [ null, %55 ], [ null, %57 ], [ null, %60 ], [ %63, %61 ], [ %63, %65 ], [ %63, %68 ]
  call void @llvm.lifetime.end.p0(i64 16, ptr nonnull %5) #14
  ret ptr %.027
}